target datalayout = "e-m:e-p270:32:32-p271:32:32-p272:64:64-i64:64-i128:128-f80:128-n8:16:32:64-S128"
target triple = "x86_64-pc-linux-gnu"

%struct._object = type { %union.anon, ptr }
%union.anon = type { i64 }
%struct.instruction_sequence = type { %struct._object, ptr, i32, i32, i32, ptr, i32, ptr }
%struct._PyInstruction = type { i32, i32, %struct._Py_SourceLocation, %struct._PyExceptHandlerInfo, i32, i32 }
%struct._Py_SourceLocation = type { i32, i32, i32, i32 }
%struct._PyExceptHandlerInfo = type { i32, i32, i32 }

; Function Attrs: nounwind uwtable
define internal i32 @instr_sequence_next_inst(ptr noundef %0) #0 {
  %2 = alloca i32, align 4
  %3 = alloca ptr, align 8
  store ptr %0, ptr %3, align 8, !tbaa !4
  %4 = load ptr, ptr %3, align 8, !tbaa !4
  %5 = getelementptr inbounds nuw %struct.instruction_sequence, ptr %4, i32 0, i32 3
  %6 = load i32, ptr %5, align 4, !tbaa !23
  %7 = add i32 %6, 1
  %8 = load ptr, ptr %3, align 8, !tbaa !4
  %9 = getelementptr inbounds nuw %struct.instruction_sequence, ptr %8, i32 0, i32 1
  %10 = load ptr, ptr %3, align 8, !tbaa !4
  %11 = getelementptr inbounds nuw %struct.instruction_sequence, ptr %10, i32 0, i32 2
  %12 = call i32 @_PyCompile_EnsureArrayLargeEnough(i32 noundef %7, ptr noundef %9, ptr noundef %11, i32 noundef 100, i64 noundef 44)
  %13 = icmp eq i32 %12, -1
  br i1 %13, label %14, label %15

14:                                               ; preds = %1
  store i32 -1, ptr %2, align 4
  br label %20

15:                                               ; preds = %1
  %16 = load ptr, ptr %3, align 8, !tbaa !4
  %17 = getelementptr inbounds nuw %struct.instruction_sequence, ptr %16, i32 0, i32 3
  %18 = load i32, ptr %17, align 4, !tbaa !23
  %19 = add i32 %18, 1
  store i32 %19, ptr %17, align 4, !tbaa !23
  store i32 %18, ptr %2, align 4
  br label %20

20:                                               ; preds = %15, %14
  %21 = load i32, ptr %2, align 4
  ret i32 %21
}

; Function Attrs: nounwind uwtable
define hidden i32 @_PyInstructionSequence_InsertInstruction(ptr noundef %0, i32 noundef %1, i32 noundef %2, i32 noundef %3, i64 %4, i64 %5) #0 {
  %7 = alloca i32, align 4
  %8 = alloca %struct._Py_SourceLocation, align 4
  %9 = alloca ptr, align 8
  %10 = alloca i32, align 4
  %11 = alloca i32, align 4
  %12 = alloca i32, align 4
  %13 = alloca i32, align 4
  %14 = alloca i32, align 4
  %15 = alloca i32, align 4
  %16 = alloca ptr, align 8
  %17 = alloca i32, align 4
  %18 = getelementptr inbounds nuw { i64, i64 }, ptr %8, i32 0, i32 0
  store i64 %4, ptr %18, align 4
  %19 = getelementptr inbounds nuw { i64, i64 }, ptr %8, i32 0, i32 1
  store i64 %5, ptr %19, align 4
  store ptr %0, ptr %9, align 8, !tbaa !4
  store i32 %1, ptr %10, align 4, !tbaa !18
  store i32 %2, ptr %11, align 4, !tbaa !18
  store i32 %3, ptr %12, align 4, !tbaa !18
  call void @llvm.lifetime.start.p0(i64 4, ptr %13) #6
  %20 = load ptr, ptr %9, align 8, !tbaa !4
  %21 = call i32 @instr_sequence_next_inst(ptr noundef %20)
  store i32 %21, ptr %13, align 4, !tbaa !18
  %22 = load i32, ptr %13, align 4, !tbaa !18
  %23 = icmp eq i32 %22, -1
  br i1 %23, label %24, label %25

24:                                               ; preds = %6
  store i32 -1, ptr %7, align 4
  store i32 1, ptr %14, align 4
  br label %96

25:                                               ; preds = %6
  call void @llvm.lifetime.start.p0(i64 4, ptr %15) #6
  %26 = load i32, ptr %13, align 4, !tbaa !18
  %27 = sub i32 %26, 1
  store i32 %27, ptr %15, align 4, !tbaa !18
  br label %28

28:                                               ; preds = %47, %25
  %29 = load i32, ptr %15, align 4, !tbaa !18
  %30 = load i32, ptr %10, align 4, !tbaa !18
  %31 = icmp sge i32 %29, %30
  br i1 %31, label %33, label %32

32:                                               ; preds = %28
  store i32 2, ptr %14, align 4
  call void @llvm.lifetime.end.p0(i64 4, ptr %15) #6
  br label %50

33:                                               ; preds = %28
  %34 = load ptr, ptr %9, align 8, !tbaa !4
  %35 = getelementptr inbounds nuw %struct.instruction_sequence, ptr %34, i32 0, i32 1
  %36 = load ptr, ptr %35, align 8, !tbaa !24
  %37 = load i32, ptr %15, align 4, !tbaa !18
  %38 = add i32 %37, 1
  %39 = sext i32 %38 to i64
  %40 = getelementptr %struct._PyInstruction, ptr %36, i64 %39
  %41 = load ptr, ptr %9, align 8, !tbaa !4
  %42 = getelementptr inbounds nuw %struct.instruction_sequence, ptr %41, i32 0, i32 1
  %43 = load ptr, ptr %42, align 8, !tbaa !24
  %44 = load i32, ptr %15, align 4, !tbaa !18
  %45 = sext i32 %44 to i64
  %46 = getelementptr %struct._PyInstruction, ptr %43, i64 %45
  call void @llvm.memcpy.p0.p0.i64(ptr align 4 %40, ptr align 4 %46, i64 44, i1 false), !tbaa.struct !37
  br label %47

47:                                               ; preds = %33
  %48 = load i32, ptr %15, align 4, !tbaa !18
  %49 = add i32 %48, -1
  store i32 %49, ptr %15, align 4, !tbaa !18
  br label %28, !llvm.loop !38

50:                                               ; preds = %32
  call void @llvm.lifetime.start.p0(i64 8, ptr %16) #6
  %51 = load ptr, ptr %9, align 8, !tbaa !4
  %52 = getelementptr inbounds nuw %struct.instruction_sequence, ptr %51, i32 0, i32 1
  %53 = load ptr, ptr %52, align 8, !tbaa !24
  %54 = load i32, ptr %10, align 4, !tbaa !18
  %55 = sext i32 %54 to i64
  %56 = getelementptr %struct._PyInstruction, ptr %53, i64 %55
  store ptr %56, ptr %16, align 8, !tbaa !25
  %57 = load i32, ptr %11, align 4, !tbaa !18
  %58 = load ptr, ptr %16, align 8, !tbaa !25
  %59 = getelementptr inbounds nuw %struct._PyInstruction, ptr %58, i32 0, i32 0
  store i32 %57, ptr %59, align 4, !tbaa !26
  %60 = load i32, ptr %12, align 4, !tbaa !18
  %61 = load ptr, ptr %16, align 8, !tbaa !25
  %62 = getelementptr inbounds nuw %struct._PyInstruction, ptr %61, i32 0, i32 1
  store i32 %60, ptr %62, align 4, !tbaa !33
  %63 = load ptr, ptr %16, align 8, !tbaa !25
  %64 = getelementptr inbounds nuw %struct._PyInstruction, ptr %63, i32 0, i32 2
  call void @llvm.memcpy.p0.p0.i64(ptr align 4 %64, ptr align 4 %8, i64 16, i1 false), !tbaa.struct !36
  call void @llvm.lifetime.start.p0(i64 4, ptr %17) #6
  store i32 0, ptr %17, align 4, !tbaa !18
  br label %65

65:                                               ; preds = %92, %50
  %66 = load i32, ptr %17, align 4, !tbaa !18
  %67 = load ptr, ptr %9, align 8, !tbaa !4
  %68 = getelementptr inbounds nuw %struct.instruction_sequence, ptr %67, i32 0, i32 6
  %69 = load i32, ptr %68, align 8, !tbaa !19
  %70 = icmp slt i32 %66, %69
  br i1 %70, label %72, label %71

71:                                               ; preds = %65
  store i32 5, ptr %14, align 4
  call void @llvm.lifetime.end.p0(i64 4, ptr %17) #6
  br label %95

72:                                               ; preds = %65
  %73 = load ptr, ptr %9, align 8, !tbaa !4
  %74 = getelementptr inbounds nuw %struct.instruction_sequence, ptr %73, i32 0, i32 5
  %75 = load ptr, ptr %74, align 8, !tbaa !20
  %76 = load i32, ptr %17, align 4, !tbaa !18
  %77 = sext i32 %76 to i64
  %78 = getelementptr i32, ptr %75, i64 %77
  %79 = load i32, ptr %78, align 4, !tbaa !18
  %80 = load i32, ptr %10, align 4, !tbaa !18
  %81 = icmp sge i32 %79, %80
  br i1 %81, label %82, label %91

82:                                               ; preds = %72
  %83 = load ptr, ptr %9, align 8, !tbaa !4
  %84 = getelementptr inbounds nuw %struct.instruction_sequence, ptr %83, i32 0, i32 5
  %85 = load ptr, ptr %84, align 8, !tbaa !20
  %86 = load i32, ptr %17, align 4, !tbaa !18
  %87 = sext i32 %86 to i64
  %88 = getelementptr i32, ptr %85, i64 %87
  %89 = load i32, ptr %88, align 4, !tbaa !18
  %90 = add i32 %89, 1
  store i32 %90, ptr %88, align 4, !tbaa !18
  br label %91

91:                                               ; preds = %82, %72
  br label %92

92:                                               ; preds = %91
  %93 = load i32, ptr %17, align 4, !tbaa !18
  %94 = add i32 %93, 1
  store i32 %94, ptr %17, align 4, !tbaa !18
  br label %65, !llvm.loop !39

95:                                               ; preds = %71
  store i32 0, ptr %7, align 4
  store i32 1, ptr %14, align 4
  call void @llvm.lifetime.end.p0(i64 8, ptr %16) #6
  br label %96

96:                                               ; preds = %95, %24
  call void @llvm.lifetime.end.p0(i64 4, ptr %13) #6
  %97 = load i32, ptr %7, align 4
  ret i32 %97
}