; Function Attrs: nounwind uwtable
define hidden range(i32 -1, 1) i32 @_PyInstructionSequence_InsertInstruction(ptr noundef %0, i32 noundef %1, i32 noundef %2, i32 noundef %3, i64 %4, i64 %5) local_unnamed_addr #1 {
  %7 = getelementptr inbounds nuw i8, ptr %0, i64 28
  %8 = load i32, ptr %7, align 4, !tbaa !16
  %9 = add i32 %8, 1
  %10 = getelementptr inbounds nuw i8, ptr %0, i64 16
  %11 = getelementptr inbounds nuw i8, ptr %0, i64 24
  %12 = tail call i32 @_PyCompile_EnsureArrayLargeEnough(i32 noundef %9, ptr noundef nonnull %10, ptr noundef nonnull %11, i32 noundef 100, i64 noundef 44) #6
  %13 = icmp eq i32 %12, -1
  br i1 %13, label %instr_sequence_next_inst.exit.thread, label %instr_sequence_next_inst.exit

instr_sequence_next_inst.exit:                    ; preds = %6
  %14 = load i32, ptr %7, align 4, !tbaa !16
  %15 = add i32 %14, 1
  store i32 %15, ptr %7, align 4, !tbaa !16
  %16 = icmp eq i32 %14, -1
  br i1 %16, label %instr_sequence_next_inst.exit.thread, label %.preheader

.preheader:                                       ; preds = %instr_sequence_next_inst.exit
  %.02632 = add i32 %14, -1
  %.not33 = icmp slt i32 %.02632, %1
  br i1 %.not33, label %._crit_edge, label %.lr.ph

._crit_edge:                                      ; preds = %.lr.ph, %.preheader
  %17 = load ptr, ptr %10, align 8, !tbaa !20
  %18 = sext i32 %1 to i64
  %19 = getelementptr %struct._PyInstruction, ptr %17, i64 %18
  store i32 %2, ptr %19, align 4, !tbaa !21
  %20 = getelementptr inbounds nuw i8, ptr %19, i64 4
  store i32 %3, ptr %20, align 4, !tbaa !28
  %21 = getelementptr inbounds nuw i8, ptr %19, i64 8
  store i64 %4, ptr %21, align 4
  %.sroa.2.0..sroa_idx = getelementptr inbounds nuw i8, ptr %19, i64 16
  store i64 %5, ptr %.sroa.2.0..sroa_idx, align 4
  %22 = getelementptr inbounds nuw i8, ptr %0, i64 48
  %23 = load i32, ptr %22, align 8, !tbaa !14
  %24 = icmp sgt i32 %23, 0
  br i1 %24, label %.lr.ph38, label %instr_sequence_next_inst.exit.thread

.lr.ph38:                                         ; preds = %._crit_edge
  %25 = getelementptr inbounds nuw i8, ptr %0, i64 40
  %26 = load ptr, ptr %25, align 8, !tbaa !15
  br label %32

.lr.ph:                                           ; preds = %.preheader, %.lr.ph
  %.02635 = phi i32 [ %.026, %.lr.ph ], [ %.02632, %.preheader ]
  %.026.in34 = phi i32 [ %.02635, %.lr.ph ], [ %14, %.preheader ]
  %27 = load ptr, ptr %10, align 8, !tbaa !20
  %28 = sext i32 %.026.in34 to i64
  %29 = getelementptr %struct._PyInstruction, ptr %27, i64 %28
  %30 = sext i32 %.02635 to i64
  %31 = getelementptr %struct._PyInstruction, ptr %27, i64 %30
  tail call void @llvm.memcpy.p0.p0.i64(ptr noundef nonnull align 4 dereferenceable(44) %29, ptr noundef nonnull align 4 dereferenceable(44) %31, i64 44, i1 false), !tbaa.struct !31
  %.026 = add i32 %.02635, -1
  %.not = icmp slt i32 %.026, %1
  br i1 %.not, label %._crit_edge, label %.lr.ph, !llvm.loop !32

32:                                               ; preds = %.lr.ph38, %38
  %33 = phi i32 [ %23, %.lr.ph38 ], [ %39, %38 ]
  %indvars.iv = phi i64 [ 0, %.lr.ph38 ], [ %indvars.iv.next, %38 ]
  %34 = getelementptr i32, ptr %26, i64 %indvars.iv
  %35 = load i32, ptr %34, align 4, !tbaa !17
  %.not30 = icmp slt i32 %35, %1
  br i1 %.not30, label %38, label %36

36:                                               ; preds = %32
  %37 = add i32 %35, 1
  store i32 %37, ptr %34, align 4, !tbaa !17
  %.pre = load i32, ptr %22, align 8, !tbaa !14
  br label %38

38:                                               ; preds = %32, %36
  %39 = phi i32 [ %33, %32 ], [ %.pre, %36 ]
  %indvars.iv.next = add nuw nsw i64 %indvars.iv, 1
  %40 = sext i32 %39 to i64
  %41 = icmp slt i64 %indvars.iv.next, %40
  br i1 %41, label %32, label %instr_sequence_next_inst.exit.thread, !llvm.loop !33

instr_sequence_next_inst.exit.thread:             ; preds = %38, %._crit_edge, %6, %instr_sequence_next_inst.exit
  %.025 = phi i32 [ -1, %instr_sequence_next_inst.exit ], [ -1, %6 ], [ 0, %._crit_edge ], [ 0, %38 ]
  ret i32 %.025
}